target datalayout = "e-m:e-p270:32:32-p271:32:32-p272:64:64-i64:64-i128:128-f80:128-n8:16:32:64-S128"
target triple = "x86_64-pc-linux-gnu"

%class.StringTableEntry = type <{ %"class.std::reference_wrapper", i32, [4 x i8] }>
%"class.std::reference_wrapper" = type { ptr }
%class.anon.32 = type { i8 }

@.str.1 = private unnamed_addr constant [125 x i8] c"generated/home/dtcxzyw/WorkSpace/Projects/compilers/llvm-opt-benchmark/bench/gromacs/gromacs/src/gromacs/topology/symtab.cpp\00", align 1
@.str.4 = private unnamed_addr constant [22 x i8] c"serializer->reading()\00", align 1
@.str.12 = private unnamed_addr constant [52 x i8] c"Can not use writing serializer to read string index\00", align 1
@"__PRETTY_FUNCTION__._ZZ20readStringTableEntryPN3gmx11ISerializerERK11StringTableENK3$_0clEv" = private unnamed_addr constant [106 x i8] c"auto readStringTableEntry(gmx::ISerializer *, const StringTable &)::(anonymous class)::operator()() const\00", align 1

; Function Attrs: inlinehint mustprogress uwtable
define internal void @"_ZZ20readStringTableEntryPN3gmx11ISerializerERK11StringTableENK3$_0clEv"(ptr noundef nonnull align 1 dereferenceable(1) %0) #13 align 2 {
  %2 = alloca ptr, align 8
  store ptr %0, ptr %2, align 8, !tbaa !98
  call void @_ZN3gmx8internal13assertHandlerEPKcS2_S2_S2_i(ptr noundef @.str.4, ptr noundef @.str.12, ptr noundef @"__PRETTY_FUNCTION__._ZZ20readStringTableEntryPN3gmx11ISerializerERK11StringTableENK3$_0clEv", ptr noundef @.str.1, i32 noundef 160) #20
  unreachable
}

; Function Attrs: mustprogress uwtable
define { ptr, i32 } @_Z20readStringTableEntryPN3gmx11ISerializerERK11StringTable(ptr noundef %0, ptr noundef nonnull align 8 dereferenceable(24) %1) #0 {
  %3 = alloca %class.StringTableEntry, align 8
  %4 = alloca ptr, align 8
  %5 = alloca ptr, align 8
  %6 = alloca %class.anon.32, align 1
  %7 = alloca i32, align 4
  %8 = alloca { ptr, i32 }, align 8
  store ptr %0, ptr %4, align 8, !tbaa !271
  store ptr %1, ptr %5, align 8, !tbaa !248
  %9 = load ptr, ptr %4, align 8, !tbaa !271
  %10 = load ptr, ptr %9, align 8, !tbaa !155
  %11 = getelementptr inbounds ptr, ptr %10, i64 2
  %12 = load ptr, ptr %11, align 8
  %13 = call noundef zeroext i1 %12(ptr noundef nonnull align 8 dereferenceable(8) %9)
  call void @llvm.lifetime.start.p0(i64 1, ptr %6) #18
  br i1 %13, label %14, label %15

14:                                               ; preds = %2
  br label %16

15:                                               ; preds = %2
  call void @"_ZZ20readStringTableEntryPN3gmx11ISerializerERK11StringTableENK3$_0clEv"(ptr noundef nonnull align 1 dereferenceable(1) %6)
  br label %16

16:                                               ; preds = %15, %14
  call void @llvm.lifetime.end.p0(i64 1, ptr %6) #18
  call void @llvm.lifetime.start.p0(i64 4, ptr %7) #18
  store i32 0, ptr %7, align 4, !tbaa !11
  %17 = load ptr, ptr %4, align 8, !tbaa !271
  %18 = load ptr, ptr %17, align 8, !tbaa !155
  %19 = getelementptr inbounds ptr, ptr %18, i64 7
  %20 = load ptr, ptr %19, align 8
  call void %20(ptr noundef nonnull align 8 dereferenceable(8) %17, ptr noundef %7)
  %21 = load ptr, ptr %5, align 8, !tbaa !248
  %22 = load i32, ptr %7, align 4, !tbaa !11
  %23 = sext i32 %22 to i64
  %24 = call { ptr, i32 } @_ZNK11StringTable2atEl(ptr noundef nonnull align 8 dereferenceable(24) %21, i64 noundef %23)
  store { ptr, i32 } %24, ptr %8, align 8
  call void @llvm.memcpy.p0.p0.i64(ptr align 8 %3, ptr align 8 %8, i64 12, i1 false)
  call void @llvm.lifetime.end.p0(i64 4, ptr %7) #18
  %25 = load { ptr, i32 }, ptr %3, align 8
  ret { ptr, i32 } %25
}