; Function Attrs: mustprogress uwtable
define { ptr, i32 } @_Z20readStringTableEntryPN3gmx11ISerializerERK11StringTable(ptr noundef %0, ptr noundef nonnull readonly align 8 captures(none) dereferenceable(24) %1) local_unnamed_addr #0 {
  %3 = alloca i32, align 4
  %4 = load ptr, ptr %0, align 8, !tbaa !49
  %5 = getelementptr inbounds nuw i8, ptr %4, i64 16
  %6 = load ptr, ptr %5, align 8
  %7 = tail call noundef zeroext i1 %6(ptr noundef nonnull align 8 dereferenceable(8) %0)
  br i1 %7, label %9, label %8

8:                                                ; preds = %2
  tail call void @_ZN3gmx8internal13assertHandlerEPKcS2_S2_S2_i(ptr noundef nonnull @.str.4, ptr noundef nonnull @.str.12, ptr noundef nonnull @"__PRETTY_FUNCTION__._ZZ20readStringTableEntryPN3gmx11ISerializerERK11StringTableENK3$_0clEv", ptr noundef nonnull @.str.1, i32 noundef 160) #29
  unreachable

9:                                                ; preds = %2
  call void @llvm.lifetime.start.p0(i64 4, ptr nonnull %3) #25
  store i32 0, ptr %3, align 4, !tbaa !34
  %10 = load ptr, ptr %0, align 8, !tbaa !49
  %11 = getelementptr inbounds nuw i8, ptr %10, i64 56
  %12 = load ptr, ptr %11, align 8
  call void %12(ptr noundef nonnull align 8 dereferenceable(8) %0, ptr noundef nonnull %3)
  %13 = load i32, ptr %3, align 4, !tbaa !34
  %14 = sext i32 %13 to i64
  %15 = call { ptr, i32 } @_ZNK11StringTable2atEl(ptr noundef nonnull align 8 dereferenceable(24) %1, i64 noundef %14)
  call void @llvm.lifetime.end.p0(i64 4, ptr nonnull %3) #25
  ret { ptr, i32 } %15
}